; Function Attrs: null_pointer_is_valid sspstrong uwtable
define internal noundef zeroext i1 @sharkd_followers_visit_layers_cb(ptr readnone captures(none) %0, ptr noundef %1, ptr noundef %2) #0 {
  %4 = alloca i32, align 4
  %5 = alloca i32, align 4
  %6 = tail call i32 @get_follow_proto_id(ptr noundef %1)
  call void @llvm.lifetime.start.p0(i64 4, ptr nonnull %4) #17
  call void @llvm.lifetime.start.p0(i64 4, ptr nonnull %5) #17
  %7 = getelementptr inbounds nuw i8, ptr %2, i64 384
  %8 = load ptr, ptr %7, align 8
  %9 = tail call ptr @proto_get_protocol_filter_name(i32 noundef %6)
  %10 = tail call zeroext i1 @proto_is_frame_protocol(ptr noundef %8, ptr noundef %9)
  br i1 %10, label %11, label %25

11:                                               ; preds = %3
  %12 = getelementptr inbounds nuw i8, ptr %2, i64 24
  %13 = tail call ptr @find_protocol_by_id(i32 noundef %6)
  %14 = tail call ptr @proto_get_protocol_short_name(ptr noundef %13)
  %15 = tail call ptr @get_follow_conv_func(ptr noundef %1)
  %16 = call ptr %15(ptr noundef %2, ptr noundef nonnull %12, ptr noundef nonnull %4, ptr noundef nonnull %5)
  call void @json_dumper_begin_object(ptr noundef nonnull @dumper)
  call void @json_dumper_set_member_name(ptr noundef nonnull @dumper, ptr noundef nonnull @.str.379)
  call void @json_dumper_value_string(ptr noundef nonnull @dumper, ptr noundef %14)
  call void @json_dumper_set_member_name(ptr noundef nonnull @dumper, ptr noundef nonnull @.str.34)
  call void @json_dumper_value_string(ptr noundef nonnull @dumper, ptr noundef %16)
  %17 = call ptr @get_follow_stream_count_func(ptr noundef %1)
  %.not = icmp eq ptr %17, null
  br i1 %.not, label %20, label %18

18:                                               ; preds = %11
  %19 = load i32, ptr %4, align 4
  call void (ptr, ptr, ...) @sharkd_json_value_anyf(ptr noundef nonnull @.str.438, ptr noundef nonnull @.str.123, i32 noundef %19)
  br label %20

20:                                               ; preds = %18, %11
  %21 = call ptr @get_follow_sub_stream_id_func(ptr noundef %1)
  %.not14 = icmp eq ptr %21, null
  br i1 %.not14, label %24, label %22

22:                                               ; preds = %20
  %23 = load i32, ptr %5, align 4
  call void (ptr, ptr, ...) @sharkd_json_value_anyf(ptr noundef nonnull @.str.37, ptr noundef nonnull @.str.123, i32 noundef %23)
  br label %24

24:                                               ; preds = %22, %20
  call void @json_dumper_end_object(ptr noundef nonnull @dumper)
  call void @g_free(ptr noundef %16)
  br label %25

25:                                               ; preds = %24, %3
  call void @llvm.lifetime.end.p0(i64 4, ptr nonnull %5) #17
  call void @llvm.lifetime.end.p0(i64 4, ptr nonnull %4) #17
  ret i1 false
}